; Function Attrs: mustprogress uwtable
define noundef i32 @_ZNK13sentencepiece22SentencePieceProcessor6eos_idEv(ptr noundef nonnull align 8 dereferenceable(88) %0) unnamed_addr #3 align 2 personality ptr @__gxx_personality_v0 {
  %2 = getelementptr inbounds i8, ptr %0, i64 8
  %3 = load ptr, ptr %2, align 8
  %4 = tail call { i64, ptr } @_ZNK13sentencepiece14ModelInterface9eos_pieceEv(ptr noundef nonnull align 8 dereferenceable(152) %3)
  %5 = extractvalue { i64, ptr } %4, 1
  %6 = tail call noundef i64 @strlen(ptr noundef nonnull dereferenceable(1) %5) #24
  %7 = load ptr, ptr %0, align 8
  %8 = getelementptr inbounds i8, ptr %7, i64 496
  %9 = load ptr, ptr %8, align 8
  %10 = tail call noundef i32 %9(ptr noundef nonnull align 8 dereferenceable(88) %0, i64 %6, ptr %5)
  %11 = load ptr, ptr %0, align 8
  %12 = getelementptr inbounds i8, ptr %11, i64 528
  %13 = load ptr, ptr %12, align 8
  %14 = tail call noundef zeroext i1 %13(ptr noundef nonnull align 8 dereferenceable(88) %0, i32 noundef %10)
  %. = select i1 %14, i32 %10, i32 -1
  ret i32 %.
}